; Function Attrs: mustprogress nofree norecurse nosync nounwind willreturn memory(readwrite, inaccessiblemem: none) uwtable
define hidden void @_ZN3sat10clause_set5eraseERNS_6clauseE(ptr nocapture noundef nonnull readonly align 8 dereferenceable(16) %this, ptr nocapture noundef nonnull readonly align 4 dereferenceable(20) %c) local_unnamed_addr #4 align 2 {
entry:
  %0 = load i32, ptr %c, align 4
  %1 = load ptr, ptr %this, align 8
  %cmp.i = icmp eq ptr %1, null
  br i1 %cmp.i, label %return, label %_ZNK6vectorIjLb0EjE4sizeEv.exit

_ZNK6vectorIjLb0EjE4sizeEv.exit:                  ; preds = %entry
  %arrayidx.i = getelementptr inbounds i8, ptr %1, i64 -4
  %2 = load i32, ptr %arrayidx.i, align 4
  %cmp.not = icmp ult i32 %0, %2
  br i1 %cmp.not, label %if.end, label %return

if.end:                                           ; preds = %_ZNK6vectorIjLb0EjE4sizeEv.exit
  %m_set.i = getelementptr inbounds i8, ptr %this, i64 8
  %3 = load ptr, ptr %m_set.i, align 8
  %cmp.i.i = icmp eq ptr %3, null
  br i1 %cmp.i.i, label %return, label %_ZNK3sat10clause_set5emptyEv.exit

_ZNK3sat10clause_set5emptyEv.exit:                ; preds = %if.end
  %arrayidx.i.i = getelementptr inbounds i8, ptr %3, i64 -4
  %4 = load i32, ptr %arrayidx.i.i, align 4
  %cmp3.i.i = icmp eq i32 %4, 0
  br i1 %cmp3.i.i, label %return, label %if.end5

if.end5:                                          ; preds = %_ZNK3sat10clause_set5emptyEv.exit
  %idxprom.i = zext i32 %0 to i64
  %arrayidx.i8 = getelementptr inbounds i32, ptr %1, i64 %idxprom.i
  %5 = load i32, ptr %arrayidx.i8, align 4
  %cmp8 = icmp eq i32 %5, -1
  br i1 %cmp8, label %return, label %if.end10

if.end10:                                         ; preds = %if.end5
  store i32 -1, ptr %arrayidx.i8, align 4
  %6 = load ptr, ptr %m_set.i, align 8
  %cmp.i11 = icmp eq ptr %6, null
  br i1 %cmp.i11, label %if.then15, label %_ZNK6vectorIPN3sat6clauseELb0EjE4sizeEv.exit

_ZNK6vectorIPN3sat6clauseELb0EjE4sizeEv.exit:     ; preds = %if.end10
  %arrayidx.i13 = getelementptr inbounds i8, ptr %6, i64 -4
  %7 = load i32, ptr %arrayidx.i13, align 4
  %8 = add i32 %7, -1
  %cmp14.not = icmp eq i32 %5, %8
  br i1 %cmp14.not, label %if.end23, label %if.then15

if.then15:                                        ; preds = %if.end10, %_ZNK6vectorIPN3sat6clauseELb0EjE4sizeEv.exit
  %retval.0.i1426 = phi i32 [ %8, %_ZNK6vectorIPN3sat6clauseELb0EjE4sizeEv.exit ], [ -1, %if.end10 ]
  %idxprom.i15 = zext i32 %retval.0.i1426 to i64
  %arrayidx.i16 = getelementptr inbounds ptr, ptr %6, i64 %idxprom.i15
  %9 = load ptr, ptr %arrayidx.i16, align 8
  %idxprom.i17 = zext i32 %5 to i64
  %arrayidx.i18 = getelementptr inbounds ptr, ptr %6, i64 %idxprom.i17
  store ptr %9, ptr %arrayidx.i18, align 8
  %10 = load i32, ptr %9, align 4
  %11 = load ptr, ptr %this, align 8
  %idxprom.i19 = zext i32 %10 to i64
  %arrayidx.i20 = getelementptr inbounds i32, ptr %11, i64 %idxprom.i19
  store i32 %5, ptr %arrayidx.i20, align 4
  %.pre = load ptr, ptr %m_set.i, align 8
  br label %if.end23

if.end23:                                         ; preds = %if.then15, %_ZNK6vectorIPN3sat6clauseELb0EjE4sizeEv.exit
  %12 = phi ptr [ %.pre, %if.then15 ], [ %6, %_ZNK6vectorIPN3sat6clauseELb0EjE4sizeEv.exit ]
  %arrayidx.i21 = getelementptr inbounds i8, ptr %12, i64 -4
  %13 = load i32, ptr %arrayidx.i21, align 4
  %dec.i = add i32 %13, -1
  store i32 %dec.i, ptr %arrayidx.i21, align 4
  br label %return

return:                                           ; preds = %if.end, %entry, %if.end5, %_ZNK3sat10clause_set5emptyEv.exit, %_ZNK6vectorIjLb0EjE4sizeEv.exit, %if.end23
  ret void
}